Certificate:
    Data:
        Version: 3 (0x2)
        Serial Number:
            60:4a:35:8a:d6:2e:81:a2:6c:7c:52:a5:ff:b9:6c:35:f9:fe:5e:f0
        Signature Algorithm: sha256WithRSAEncryption
        Issuer: C=TW, ST=\xE5\x8F\xB0\xE7\x81\xA3\xE7\x9C\x81, O=LCINAT\xE7\xA7\x81\xE4\xBA\xBA\xE6\x86\x91\xE8\xAD\x89\xE7\xAE\xA1\xE7\x90\x86\xE4\xB8\xAD\xE5\xBF\x83, CN=LCINAT CA\xE6\xA0\xB9\xE6\x86\x91\xE8\xAD\x89
        Validity
            Not Before: May  6 07:01:54 2022 GMT
            Not After : Jun  8 07:01:54 2023 GMT
        Subject: C=TW, ST=\xE5\x8F\xB0\xE7\x81\xA3\xE7\x9C\x81, L=\xE6\x96\xB0\xE5\x8C\x97\xE5\xB8\x82, O=LCINAT\xE7\xA7\x81\xE4\xBA\xBA\xE6\x86\x91\xE8\xAD\x89\xE7\xAE\xA1\xE7\x90\x86\xE4\xB8\xAD\xE5\xBF\x83, CN=LCINAT MSIX-CA/businessCategory=Private Organization/serialNumber=PriOrg-1110500000T/street=\xE8\x98\x86\xE6\xB4\xB2\xE5\x8D\x80\xE6\xB0\xB8\xE6\xA8\x82\xE8\xA1\x9755\xE8\x99\x9F/postalCode=247/jurisdictionL=\xE6\x96\xB0\xE5\x8C\x97\xE5\xB8\x82/jurisdictionST=\xE5\x8F\xB0\xE7\x81\xA3\xE7\x9C\x81/jurisdictionC=TW
        Subject Public Key Info:
            Public Key Algorithm: rsaEncryption
                Public-Key: (2048 bit)
                Modulus:
                    00:d2:c1:11:38:ea:25:bd:2d:37:f0:4e:ae:e6:17:
                    e7:df:d9:f4:24:36:58:ac:71:ad:73:fc:c0:93:05:
                    2f:4c:59:8c:74:d8:c5:b7:20:5d:e1:77:76:24:d8:
                    30:28:a3:77:83:a3:f9:d2:48:71:33:ff:a7:45:c5:
                    05:b4:c1:15:34:23:9f:3d:27:2b:60:4b:74:80:0f:
                    8d:c5:7e:4a:24:93:7c:fb:fc:d1:12:ca:f2:1c:11:
                    45:f8:cc:97:c4:da:a4:0d:74:c6:0e:17:f2:38:c9:
                    f8:00:ff:72:50:e8:d8:bf:b9:40:7d:41:5c:b1:0d:
                    87:03:91:59:c3:39:f6:ac:b4:e2:5f:29:9c:91:8a:
                    f3:7b:82:a4:1d:3c:1d:08:22:57:1e:16:e4:e4:82:
                    5e:89:bf:22:47:69:ac:c3:b4:09:4e:d7:ad:15:74:
                    dd:9a:9c:06:7b:26:bf:46:b6:51:1c:ce:a5:bd:d3:
                    1e:fd:bb:f1:fa:64:d5:6f:5f:84:c5:2c:fa:56:33:
                    1d:0e:56:8a:55:97:73:51:04:75:b9:74:74:05:2a:
                    a7:d5:04:7b:d5:5e:d8:03:53:4a:c9:88:bf:e6:41:
                    43:85:61:76:8d:95:ab:ce:64:62:96:f5:79:8e:fb:
                    2d:fe:3a:08:5e:47:15:30:70:e8:b2:9a:05:ae:86:
                    ae:f1
                Exponent: 65537 (0x10001)
        X509v3 extensions:
            X509v3 Subject Key Identifier: 
                A8:6F:89:2A:85:03:69:C1:35:F1:EA:B1:67:E9:B7:3D:8C:CC:C8:75
            X509v3 Authority Key Identifier: 
                C0:19:7A:65:42:5C:D2:A2:36:C2:BF:24:62:E7:E2:52:D3:9E:96:5E
            X509v3 Key Usage: 
                Certificate Sign, CRL Sign
            X509v3 Subject Alternative Name: 
                <EMPTY>

            X509v3 Issuer Alternative Name: 
                <EMPTY>

            X509v3 Basic Constraints: critical
                CA:TRUE
            X509v3 CRL Distribution Points: 
                Full Name:
                  URI:https://mctea01.github.io/LCINAT-CA/CRL/ROOTCA/ca.crl
            X509v3 Certificate Policies: 
                Policy: 2.23.140.1.1
                Policy: trustList
                  CPS: https://mctea01.github.io/LCINAT-CA/
            X509v3 Extended Key Usage: 
                TLS Web Server Authentication, TLS Web Client Authentication, Time Stamping
    Signature Algorithm: sha256WithRSAEncryption
    Signature Value:
        a0:1e:67:fb:a0:f2:eb:f2:83:4b:74:68:8d:8f:91:5e:81:89:
        ab:95:73:1c:50:0b:c7:c2:79:24:13:0f:eb:19:1f:4b:ad:e5:
        f2:06:5d:b0:ec:a6:e4:ad:b7:d7:e8:5b:83:f2:03:d8:26:94:
        1b:29:07:97:b4:4e:50:e5:29:cb:3d:de:10:fa:a4:4b:55:f3:
        19:4a:1f:98:c7:2b:cf:e9:06:b0:8d:9a:2b:40:6f:c4:b6:d1:
        37:86:7c:a0:1b:9c:0e:ce:fd:e2:15:74:bf:e3:95:ad:12:9c:
        52:3b:c8:78:1f:17:7e:61:07:87:0a:9d:2a:7c:e0:da:0a:34:
        3e:94:4b:f2:09:ee:f5:1e:5d:6e:74:3e:de:f9:79:08:ba:0d:
        f4:f6:69:fa:66:a1:c1:9e:21:a1:be:b9:5d:7f:a0:2a:44:32:
        3f:ad:95:65:f9:98:69:aa:00:6d:85:96:bc:8b:da:76:09:cd:
        ed:26:81:18:81:0b:00:ce:f4:4a:d9:2b:af:92:5f:2d:a1:01:
        99:57:c1:d4:56:ce:4b:6e:88:3c:0c:86:14:4b:5c:fd:76:79:
        95:1f:ac:f2:b4:55:a1:70:e5:d6:44:30:93:14:66:d6:99:fd:
        c2:0b:50:c1:b3:9d:43:c5:c8:bb:6b:51:96:e4:ea:ea:6d:6c:
        b3:3d:b9:9a
-----BEGIN CERTIFICATE-----
MIIFaDCCBFCgAwIBAgIUYEo1itYugaJsfFKl/7lsNfn+XvAwDQYJKoZIhvcNAQEL
BQAwZzELMAkGA1UEBhMCVFcxEjAQBgNVBAgMCeWPsOeBo+ecgTEnMCUGA1UECgwe
TENJTkFU56eB5Lq65oaR6K2J566h55CG5Lit5b+DMRswGQYDVQQDDBJMQ0lOQVQg
Q0HmoLnmhpHorYkwHhcNMjIwNTA2MDcwMTU0WhcNMjMwNjA4MDcwMTU0WjCCATAx
CzAJBgNVBAYTAlRXMRIwEAYDVQQIDAnlj7DngaPnnIExEjAQBgNVBAcMCeaWsOWM
l+W4gjEnMCUGA1UECgweTENJTkFU56eB5Lq65oaR6K2J566h55CG5Lit5b+DMRcw
FQYDVQQDDA5MQ0lOQVQgTVNJWC1DQTEdMBsGA1UEDwwUUHJpdmF0ZSBPcmdhbml6
YXRpb24xGzAZBgNVBAUTElByaU9yZy0xMTEwNTAwMDAwVDEgMB4GA1UECQwX6JiG
5rSy5Y2A5rC45qiC6KGXNTXomZ8xDDAKBgNVBBEMAzI0NzEaMBgGCysGAQQBgjc8
AgEBDAnmlrDljJfluIIxGjAYBgsrBgEEAYI3PAIBAgwJ5Y+w54Gj55yBMRMwEQYL
KwYBBAGCNzwCAQMTAlRXMIIBIjANBgkqhkiG9w0BAQEFAAOCAQ8AMIIBCgKCAQEA
0sEROOolvS038E6u5hfn39n0JDZYrHGtc/zAkwUvTFmMdNjFtyBd4Xd2JNgwKKN3
g6P50khxM/+nRcUFtMEVNCOfPScrYEt0gA+NxX5KJJN8+/zREsryHBFF+MyXxNqk
DXTGDhfyOMn4AP9yUOjYv7lAfUFcsQ2HA5FZwzn2rLTiXymckYrze4KkHTwdCCJX
Hhbk5IJeib8iR2msw7QJTtetFXTdmpwGeya/RrZRHM6lvdMe/bvx+mTVb1+ExSz6
VjMdDlaKVZdzUQR1uXR0BSqn1QR71V7YA1NKyYi/5kFDhWF2jZWrzmRilvV5jvst
/joIXkcVMHDospoFroau8QIDAQABo4IBPzCCATswHQYDVR0OBBYEFKhviSqFA2nB
NfHqsWfptz2MzMh1MB8GA1UdIwQYMBaAFMAZemVCXNKiNsK/JGLn4lLTnpZeMAsG
A1UdDwQEAwIBBjAJBgNVHREEAjAAMAkGA1UdEgQCMAAwDwYDVR0TAQH/BAUwAwEB
/zBGBgNVHR8EPzA9MDugOaA3hjVodHRwczovL21jdGVhMDEuZ2l0aHViLmlvL0xD
SU5BVC1DQS9DUkwvUk9PVENBL2NhLmNybDBUBgNVHSAETTBLMAcGBWeBDAEBMEAG
CmCGSAGG+EIBhwQwMjAwBggrBgEFBQcCARYkaHR0cHM6Ly9tY3RlYTAxLmdpdGh1
Yi5pby9MQ0lOQVQtQ0EvMCcGA1UdJQQgMB4GCCsGAQUFBwMBBggrBgEFBQcDAgYI
KwYBBQUHAwgwDQYJKoZIhvcNAQELBQADggEBAKAeZ/ug8uvyg0t0aI2PkV6BiauV
cxxQC8fCeSQTD+sZH0ut5fIGXbDspuStt9foW4PyA9gmlBspB5e0TlDlKcs93hD6
pEtV8xlKH5jHK8/pBrCNmitAb8S20TeGfKAbnA7O/eIVdL/jla0SnFI7yHgfF35h
B4cKnSp84NoKND6US/IJ7vUeXW50Pt75eQi6DfT2afpmocGeIaG+uV1/oCpEMj+t
lWX5mGmqAG2FlryL2nYJze0mgRiBCwDO9ErZK6+SXy2hAZlXwdRWzktuiDwMhhRL
XP12eZUfrPK0VaFw5dZEMJMUZtaZ/cILUMGznUPFyLtrUZbk6uptbLM9uZo=
-----END CERTIFICATE-----
